; Function Attrs: nounwind uwtable
define dso_local void @trace2_cmd_mode_fl(ptr noundef %0, i32 noundef %1, ptr noundef %2) local_unnamed_addr #0 {
  %.b = load i1, ptr @trace2_enabled, align 4
  br i1 %.b, label %.preheader, label %.loopexit

.preheader:                                       ; preds = %3, %10
  %indvars.iv = phi i64 [ %indvars.iv.next, %10 ], [ 0, %3 ]
  %.0913 = phi ptr [ %12, %10 ], [ @tr2_tgt_normal, %3 ]
  %4 = load ptr, ptr %.0913, align 8, !tbaa !14
  %5 = tail call i32 @tr2_dst_trace_want(ptr noundef %4) #11
  %.not11 = icmp eq i32 %5, 0
  br i1 %.not11, label %10, label %6

6:                                                ; preds = %.preheader
  %7 = getelementptr inbounds nuw i8, ptr %.0913, i64 96
  %8 = load ptr, ptr %7, align 8, !tbaa !46
  %.not12 = icmp eq ptr %8, null
  br i1 %.not12, label %10, label %9

9:                                                ; preds = %6
  tail call void %8(ptr noundef %0, i32 noundef %1, ptr noundef %2) #11
  br label %10

10:                                               ; preds = %.preheader, %9, %6
  %indvars.iv.next = add nuw nsw i64 %indvars.iv, 1
  %11 = getelementptr inbounds nuw [4 x ptr], ptr @tr2_tgt_builtins, i64 0, i64 %indvars.iv.next
  %12 = load ptr, ptr %11, align 8, !tbaa !10
  %.not = icmp eq i64 %indvars.iv.next, 3
  br i1 %.not, label %.loopexit, label %.preheader, !llvm.loop !47

.loopexit:                                        ; preds = %10, %3
  ret void
}